(dp0
S'head_angle'
p1
(lp2
F1.9541592394995373
aF1.5707963267948966
aF1.5707963267948966
aF1.5707963267948966
aF1.5707963267948966
aF1.5707963267948966
aF1.9975712733881992
aF1.9616080431575413
aF1.8693091162632114
aF1.9362237836846803
aF2.0062874773374193
aF1.9101051306396264
aF1.9754672445441104
aF2.039299175394649
aF2.1277522164045513
aF2.118555426180488
aF2.178905240436803
aF2.1392433267663264
aF2.173862974835472
aF2.0405891630396398
aF2.015593441769673
aF2.076463409122005
aF2.0754112930350295
aF2.0401496170879403
aF2.1178787786960935
aF2.0978428821017725
aF2.1818016390804704
aF2.113765895688919
aF2.139805782144441
aF2.1543529509902837
aF2.1260178088591717
aF2.120442458712516
aF2.1103770798299513
aF2.1295963315500597
aF2.1395517784988605
aF2.087389976411468
aF2.037871968839399
aF2.0765844069494954
aF2.1413515922600945
aF1.941856551208798
aF2.028165488087421
aF2.1988775529736624
aF2.1829922860160127
aF2.352085665044129
aF1.5707963267948966
aF1.5707963267948966
aF1.5707963267948966
asS'body_angle'
p3
(lp4
F3.1200672096353252
aF1.5707963267948966
aF1.9074420761183686
aF1.9284894237810886
aF1.5707963267948966
aF1.5707963267948966
aF2.399108888913634
aF2.221996519270942
aF2.0924627078996454
aF1.9906002735640909
aF1.8280462756519964
aF1.73250372222472
aF1.6304762244400723
aF1.4988326986868448
aF1.3742129757139074
aF1.3360420020068997
aF1.2994522945541676
aF1.3154128884563965
aF1.163149908128126
aF1.0922957387945618
aF0.9713690954779972
aF0.8959802710325853
aF0.7192236048587544
aF0.7065796047979943
aF0.6663456443899344
aF0.5732269454898591
aF0.5890780339027628
aF0.5820029488586606
aF0.6589674800510038
aF0.6641042794835025
aF0.8828258693811557
aF0.9454072444573933
aF1.0408784166068168
aF1.1839584995112262
aF1.2474356369059385
aF1.302694040498518
aF1.495480938494548
aF1.561182172562765
aF1.607687716027726
aF1.8108539894735491
aF2.024722976243303
aF2.144005737151761
aF2.3018622561850277
aF2.418987257674052
aF1.5707963267948966
aF1.5707963267948966
aF1.5707963267948966
as.