(dp0
S'body'
p1
(lp2
F0.21417737720072363
aF0.2305278684657119
aF0.34158155712818805
aF0.7898929975156361
aF1.2927277898811973
aF1.5157359443856409
aF1.828541694590584
aF1.8124688610819082
aF1.7987268364242313
aF1.8752313948413344
aF1.861350299208827
aF1.928289233106321
aF1.8238178208406137
aF2.1791498721301625
aF2.6319642060044153
aF2.564125571717783
aF2.7100517707197675
aF2.585372183154248
aF2.5888130688959143
asS'arm2'
p3
(lp4
F1.565997524697097
aF1.917494987491928
aF2.6411909836944245
aF2.1947741713869884
aF2.961354048605883
aF2.5433008304685365
aF3.140717982121551
aF3.1238124637356663
aF2.9549344539266853
aF3.110099015477683
aF3.108793550604928
aF3.0926009278208166
aF3.007912520631337
aF2.8490283656283406
aF2.485453461744652
aF2.3457124758381043
aF2.1889231530647795
aF2.4056753596943095
aF2.304148789266314
asS'arm1'
p5
(lp6
F1.8893256838885493
aF2.030398821201552
aF1.761742200485268
aF1.5748553694133345
aF1.3714844327137796
aF1.2866979372214131
aF1.2789871242104291
aF1.21223364106103
aF1.146237413588377
aF1.2580673632977863
aF1.2205308121368497
aF1.2495214393163026
aF1.245109451025127
aF1.827992541870643
aF3.0415473357760976
aF2.837047549540102
aF2.7973723989122803
aF2.8096028402642284
aF2.8416545134406492
as.