(dp0
S'body'
p1
(lp2
F3.0072151363225177
aF3.030322740527712
aF2.961948467799158
aF3.0268327421843573
aF3.0464336635377136
aF2.966548276161041
aF3.058046028072404
aF3.0196576397958905
aF3.004055952477278
aF3.000592478440912
aF2.994190064357812
aF3.030714155706119
aF3.000829574295164
aF2.9279924389722574
aF3.032448441182984
aF2.980267899318224
aF2.9175064583083885
aF2.989059699577119
aF3.000042692599092
aF2.946226128763502
aF3.033136246248545
aF3.0076137033678574
aF3.023241894771872
aF2.9601305632397614
aF2.9642157932034596
aF2.967102654653649
aF3.0212473162761295
aF3.0081435943951456
aF2.9704355097974475
aF2.9878604473673147
aF3.072425566013606
aF3.039200230950887
aF3.058458419745089
aF3.063239484142975
aF3.013450882418832
aF2.9832134665467978
aF2.9958239077078197
asS'arm'
p3
(lp4
F2.961507377011686
aF2.9752141847379794
aF3.010842730847685
aF2.9202925401180604
aF2.8259880668014663
aF2.628216830409342
aF2.5237099076487923
aF2.393353509140804
aF2.2864205915486115
aF2.1363072418984763
aF1.9974555558388913
aF1.88388764612301
aF1.788226550888096
aF1.6877544917873815
aF1.4586715046814547
aF1.4934933707071554
aF1.3706086009151541
aF1.3185371826261632
aF1.3507440100075145
aF1.3162692736174058
aF1.3088088599445287
aF1.3404118478115443
aF1.4532594831342285
aF1.5754518094956094
aF1.704159057856978
aF1.8318494354782784
aF1.8888187819262778
aF2.09723218606731
aF2.2397483408015697
aF2.3165770760165403
aF2.428262366490246
aF2.5687393553723954
aF2.734865163929119
aF2.938099311441761
aF2.9453211963916326
aF3.035891153378531
aF3.0354820750260294
as.